ccopy_reg
_reconstructor
p0
(cpacman.model.routing_tables.multicast_routing_table
MulticastRoutingTable
p1
c__builtin__
object
p2
Ntp3
Rp4
(dp5
S'_multicast_routing_entries_by_key_combo_mask'
p6
ccollections
OrderedDict
p7
((lp8
(lp9
(I14336
I4294965248
tp10
ag0
(cspinn_machine.multicast_routing_entry
MulticastRoutingEntry
p11
g2
Ntp12
Rp13
(dp14
S'_processor_ids'
p15
c__builtin__
set
p16
((lp17
I2
atp18
Rp19
sS'_defaultable'
p20
I00
sS'_key_combo'
p21
I14336
sS'_mask'
p22
I4294965248
sS'_link_ids'
p23
g16
((lp24
tp25
Rp26
sbaa(lp27
(I18432
I4294965248
tp28
ag0
(g11
g2
Ntp29
Rp30
(dp31
g15
g16
((lp32
I2
atp33
Rp34
sg20
I00
sg21
I18432
sg22
I4294965248
sg23
g16
((lp35
tp36
Rp37
sbaa(lp38
(I4096
I4294965248
tp39
ag0
(g11
g2
Ntp40
Rp41
(dp42
g15
g16
((lp43
I2
aI3
atp44
Rp45
sg20
I00
sg21
I4096
sg22
I4294965248
sg23
g16
((lp46
tp47
Rp48
sbaa(lp49
(I26624
I4294965248
tp50
ag0
(g11
g2
Ntp51
Rp52
(dp53
g15
g16
((lp54
I3
atp55
Rp56
sg20
I00
sg21
I26624
sg22
I4294965248
sg23
g16
((lp57
tp58
Rp59
sbaa(lp60
(I12288
I4294965248
tp61
ag0
(g11
g2
Ntp62
Rp63
(dp64
g15
g16
((lp65
I2
atp66
Rp67
sg20
I00
sg21
I12288
sg22
I4294965248
sg23
g16
((lp68
tp69
Rp70
sbaa(lp71
(I16384
I4294965248
tp72
ag0
(g11
g2
Ntp73
Rp74
(dp75
g15
g16
((lp76
I2
atp77
Rp78
sg20
I00
sg21
I16384
sg22
I4294965248
sg23
g16
((lp79
tp80
Rp81
sbaa(lp82
(I10240
I4294965248
tp83
ag0
(g11
g2
Ntp84
Rp85
(dp86
g15
g16
((lp87
I2
atp88
Rp89
sg20
I00
sg21
I10240
sg22
I4294965248
sg23
g16
((lp90
tp91
Rp92
sbaa(lp93
(I8192
I4294965248
tp94
ag0
(g11
g2
Ntp95
Rp96
(dp97
g15
g16
((lp98
I3
atp99
Rp100
sg20
I00
sg21
I8192
sg22
I4294965248
sg23
g16
((lp101
tp102
Rp103
sbaa(lp104
(I20480
I4294965248
tp105
ag0
(g11
g2
Ntp106
Rp107
(dp108
g15
g16
((lp109
I2
atp110
Rp111
sg20
I00
sg21
I20480
sg22
I4294965248
sg23
g16
((lp112
tp113
Rp114
sbaa(lp115
(I6144
I4294965248
tp116
ag0
(g11
g2
Ntp117
Rp118
(dp119
g15
g16
((lp120
I2
aI3
aI13
atp121
Rp122
sg20
I00
sg21
I6144
sg22
I4294965248
sg23
g16
((lp123
tp124
Rp125
sbaatp126
Rp127
sS'_multicast_routing_entries'
p128
g16
((lp129
g118
ag85
ag63
ag107
ag41
ag96
ag74
ag30
ag13
ag52
atp130
Rp131
sS'_y'
p132
I0
sS'_x'
p133
I0
sb.